; ModuleID = '36/1287.c'
source_filename = "36/1287.c"
target datalayout = "e-m:e-p270:32:32-p271:32:32-p272:64:64-i64:64-f80:128-n8:16:32:64-S128"
target triple = "x86_64-pc-linux-gnu"

@.str = private unnamed_addr constant [3 x i8] c"%s\00", align 1
@.str.1 = private unnamed_addr constant [4 x i8] c"NO\0A\00", align 1
@.str.2 = private unnamed_addr constant [5 x i8] c"YES\0A\00", align 1

; Function Attrs: noinline nounwind uwtable
define dso_local void @main() #0 {
  %1 = alloca [100 x i8], align 16
  %2 = alloca [100 x i8], align 16
  %3 = alloca i8, align 1
  %4 = alloca i32, align 4
  %5 = alloca i32, align 4
  %6 = alloca i32, align 4
  %7 = alloca i32, align 4
  %8 = alloca i32, align 4
  %9 = alloca i32, align 4
  %10 = getelementptr inbounds [100 x i8], [100 x i8]* %1, i64 0, i64 0
  %11 = call i32 (i8*, ...) @__isoc99_scanf(i8* getelementptr inbounds ([3 x i8], [3 x i8]* @.str, i64 0, i64 0), i8* %10)
  %12 = getelementptr inbounds [100 x i8], [100 x i8]* %2, i64 0, i64 0
  %13 = call i32 (i8*, ...) @__isoc99_scanf(i8* getelementptr inbounds ([3 x i8], [3 x i8]* @.str, i64 0, i64 0), i8* %12)
  %14 = getelementptr inbounds [100 x i8], [100 x i8]* %1, i64 0, i64 0
  %15 = call i64 @strlen(i8* %14) #3
  %16 = trunc i64 %15 to i32
  store i32 %16, i32* %7, align 4
  %17 = getelementptr inbounds [100 x i8], [100 x i8]* %2, i64 0, i64 0
  %18 = call i64 @strlen(i8* %17) #3
  %19 = trunc i64 %18 to i32
  store i32 %19, i32* %8, align 4
  %20 = load i32, i32* %7, align 4
  %21 = load i32, i32* %8, align 4
  %22 = icmp ne i32 %20, %21
  br i1 %22, label %23, label %25

23:                                               ; preds = %0
  %24 = call i32 (i8*, ...) @printf(i8* getelementptr inbounds ([4 x i8], [4 x i8]* @.str.1, i64 0, i64 0))
  br label %160

25:                                               ; preds = %0
  %26 = load i32, i32* %7, align 4
  %27 = load i32, i32* %8, align 4
  %28 = icmp eq i32 %26, %27
  br i1 %28, label %29, label %159

29:                                               ; preds = %25
  store i32 0, i32* %4, align 4
  br label %30

30:                                               ; preds = %75, %29
  %31 = load i32, i32* %4, align 4
  %32 = load i32, i32* %7, align 4
  %33 = sub nsw i32 %32, 1
  %34 = icmp slt i32 %31, %33
  br i1 %34, label %35, label %78

35:                                               ; preds = %30
  %36 = load i32, i32* %4, align 4
  %37 = add nsw i32 %36, 1
  store i32 %37, i32* %5, align 4
  br label %38

38:                                               ; preds = %71, %35
  %39 = load i32, i32* %5, align 4
  %40 = load i32, i32* %7, align 4
  %41 = icmp slt i32 %39, %40
  br i1 %41, label %42, label %74

42:                                               ; preds = %38
  %43 = load i32, i32* %4, align 4
  %44 = sext i32 %43 to i64
  %45 = getelementptr inbounds [100 x i8], [100 x i8]* %1, i64 0, i64 %44
  %46 = load i8, i8* %45, align 1
  %47 = sext i8 %46 to i32
  %48 = load i32, i32* %5, align 4
  %49 = sext i32 %48 to i64
  %50 = getelementptr inbounds [100 x i8], [100 x i8]* %1, i64 0, i64 %49
  %51 = load i8, i8* %50, align 1
  %52 = sext i8 %51 to i32
  %53 = icmp sgt i32 %47, %52
  br i1 %53, label %54, label %70

54:                                               ; preds = %42
  %55 = load i32, i32* %4, align 4
  %56 = sext i32 %55 to i64
  %57 = getelementptr inbounds [100 x i8], [100 x i8]* %1, i64 0, i64 %56
  %58 = load i8, i8* %57, align 1
  store i8 %58, i8* %3, align 1
  %59 = load i32, i32* %5, align 4
  %60 = sext i32 %59 to i64
  %61 = getelementptr inbounds [100 x i8], [100 x i8]* %1, i64 0, i64 %60
  %62 = load i8, i8* %61, align 1
  %63 = load i32, i32* %4, align 4
  %64 = sext i32 %63 to i64
  %65 = getelementptr inbounds [100 x i8], [100 x i8]* %1, i64 0, i64 %64
  store i8 %62, i8* %65, align 1
  %66 = load i8, i8* %3, align 1
  %67 = load i32, i32* %5, align 4
  %68 = sext i32 %67 to i64
  %69 = getelementptr inbounds [100 x i8], [100 x i8]* %1, i64 0, i64 %68
  store i8 %66, i8* %69, align 1
  br label %70

70:                                               ; preds = %54, %42
  br label %71

71:                                               ; preds = %70
  %72 = load i32, i32* %5, align 4
  %73 = add nsw i32 %72, 1
  store i32 %73, i32* %5, align 4
  br label %38

74:                                               ; preds = %38
  br label %75

75:                                               ; preds = %74
  %76 = load i32, i32* %4, align 4
  %77 = add nsw i32 %76, 1
  store i32 %77, i32* %4, align 4
  br label %30

78:                                               ; preds = %30
  store i32 0, i32* %4, align 4
  br label %79

79:                                               ; preds = %124, %78
  %80 = load i32, i32* %4, align 4
  %81 = load i32, i32* %8, align 4
  %82 = sub nsw i32 %81, 1
  %83 = icmp slt i32 %80, %82
  br i1 %83, label %84, label %127

84:                                               ; preds = %79
  %85 = load i32, i32* %4, align 4
  %86 = add nsw i32 %85, 1
  store i32 %86, i32* %5, align 4
  br label %87

87:                                               ; preds = %120, %84
  %88 = load i32, i32* %5, align 4
  %89 = load i32, i32* %8, align 4
  %90 = icmp slt i32 %88, %89
  br i1 %90, label %91, label %123

91:                                               ; preds = %87
  %92 = load i32, i32* %4, align 4
  %93 = sext i32 %92 to i64
  %94 = getelementptr inbounds [100 x i8], [100 x i8]* %2, i64 0, i64 %93
  %95 = load i8, i8* %94, align 1
  %96 = sext i8 %95 to i32
  %97 = load i32, i32* %5, align 4
  %98 = sext i32 %97 to i64
  %99 = getelementptr inbounds [100 x i8], [100 x i8]* %2, i64 0, i64 %98
  %100 = load i8, i8* %99, align 1
  %101 = sext i8 %100 to i32
  %102 = icmp sgt i32 %96, %101
  br i1 %102, label %103, label %119

103:                                              ; preds = %91
  %104 = load i32, i32* %4, align 4
  %105 = sext i32 %104 to i64
  %106 = getelementptr inbounds [100 x i8], [100 x i8]* %2, i64 0, i64 %105
  %107 = load i8, i8* %106, align 1
  store i8 %107, i8* %3, align 1
  %108 = load i32, i32* %5, align 4
  %109 = sext i32 %108 to i64
  %110 = getelementptr inbounds [100 x i8], [100 x i8]* %2, i64 0, i64 %109
  %111 = load i8, i8* %110, align 1
  %112 = load i32, i32* %4, align 4
  %113 = sext i32 %112 to i64
  %114 = getelementptr inbounds [100 x i8], [100 x i8]* %2, i64 0, i64 %113
  store i8 %111, i8* %114, align 1
  %115 = load i8, i8* %3, align 1
  %116 = load i32, i32* %5, align 4
  %117 = sext i32 %116 to i64
  %118 = getelementptr inbounds [100 x i8], [100 x i8]* %2, i64 0, i64 %117
  store i8 %115, i8* %118, align 1
  br label %119

119:                                              ; preds = %103, %91
  br label %120

120:                                              ; preds = %119
  %121 = load i32, i32* %5, align 4
  %122 = add nsw i32 %121, 1
  store i32 %122, i32* %5, align 4
  br label %87

123:                                              ; preds = %87
  br label %124

124:                                              ; preds = %123
  %125 = load i32, i32* %4, align 4
  %126 = add nsw i32 %125, 1
  store i32 %126, i32* %4, align 4
  br label %79

127:                                              ; preds = %79
  store i32 0, i32* %4, align 4
  br label %128

128:                                              ; preds = %148, %127
  %129 = load i32, i32* %4, align 4
  %130 = load i32, i32* %7, align 4
  %131 = sub nsw i32 %130, 1
  %132 = icmp slt i32 %129, %131
  br i1 %132, label %133, label %151

133:                                              ; preds = %128
  %134 = load i32, i32* %4, align 4
  %135 = sext i32 %134 to i64
  %136 = getelementptr inbounds [100 x i8], [100 x i8]* %1, i64 0, i64 %135
  %137 = load i8, i8* %136, align 1
  %138 = sext i8 %137 to i32
  %139 = load i32, i32* %4, align 4
  %140 = sext i32 %139 to i64
  %141 = getelementptr inbounds [100 x i8], [100 x i8]* %2, i64 0, i64 %140
  %142 = load i8, i8* %141, align 1
  %143 = sext i8 %142 to i32
  %144 = icmp ne i32 %138, %143
  br i1 %144, label %145, label %147

145:                                              ; preds = %133
  %146 = call i32 (i8*, ...) @printf(i8* getelementptr inbounds ([4 x i8], [4 x i8]* @.str.1, i64 0, i64 0))
  br label %151

147:                                              ; preds = %133
  br label %148

148:                                              ; preds = %147
  %149 = load i32, i32* %4, align 4
  %150 = add nsw i32 %149, 1
  store i32 %150, i32* %4, align 4
  br label %128

151:                                              ; preds = %145, %128
  %152 = load i32, i32* %4, align 4
  %153 = load i32, i32* %7, align 4
  %154 = sub nsw i32 %153, 1
  %155 = icmp eq i32 %152, %154
  br i1 %155, label %156, label %158

156:                                              ; preds = %151
  %157 = call i32 (i8*, ...) @printf(i8* getelementptr inbounds ([5 x i8], [5 x i8]* @.str.2, i64 0, i64 0))
  br label %158

158:                                              ; preds = %156, %151
  br label %159

159:                                              ; preds = %158, %25
  br label %160

160:                                              ; preds = %159, %23
  ret void
}

declare dso_local i32 @__isoc99_scanf(i8*, ...) #1

; Function Attrs: nounwind readonly
declare dso_local i64 @strlen(i8*) #2

declare dso_local i32 @printf(i8*, ...) #1


!llvm.module.flags = !{!0}
!llvm.ident = !{!1}

!0 = !{i32 1, !"wchar_size", i32 4}
!1 = !{!"clang version 10.0.0-4ubuntu1 "}
